; Function Attrs: nounwind uwtable
define void @Llb_ManFlowCollectAndMarkCone_rec(ptr noundef readonly captures(none) %0, ptr noundef %1, ptr noundef captures(none) %2) local_unnamed_addr #0 {
  %4 = getelementptr i8, ptr %1, i64 24
  %.val4.i = load i64, ptr %4, align 8
  %5 = and i64 %.val4.i, 7
  %.not.i = icmp eq i64 %5, 3
  br i1 %.not.i, label %Saig_ObjIsLi.exit, label %Saig_ObjIsLi.exit.thread

Saig_ObjIsLi.exit:                                ; preds = %3
  %.val.i = load i32, ptr %1, align 8, !tbaa !40
  %6 = getelementptr i8, ptr %0, i64 112
  %.val3.i = load i32, ptr %6, align 8, !tbaa !48
  %.not30 = icmp slt i32 %.val.i, %.val3.i
  %7 = and i64 %.val4.i, 32
  %.not21 = icmp eq i64 %7, 0
  %or.cond = and i1 %.not21, %.not30
  br i1 %or.cond, label %8, label %.critedge

Saig_ObjIsLi.exit.thread:                         ; preds = %3
  %.old = and i64 %.val4.i, 32
  %.not21.old = icmp eq i64 %.old, 0
  br i1 %.not21.old, label %8, label %.critedge

8:                                                ; preds = %Saig_ObjIsLi.exit, %Saig_ObjIsLi.exit.thread
  %9 = and i64 %.val4.i, 16
  %10 = icmp eq i64 %9, 0
  br i1 %10, label %11, label %48

11:                                               ; preds = %8
  %12 = or disjoint i64 %.val4.i, 32
  store i64 %12, ptr %4, align 8
  %13 = trunc i64 %.val4.i to i32
  %14 = and i32 %13, 7
  %15 = add nsw i32 %14, -7
  %narrow.i = icmp ult i32 %15, -2
  br i1 %narrow.i, label %48, label %16

16:                                               ; preds = %11
  %17 = getelementptr inbounds nuw i8, ptr %2, i64 4
  %18 = load i32, ptr %17, align 4, !tbaa !10
  %19 = load i32, ptr %2, align 8, !tbaa !3
  %20 = icmp eq i32 %18, %19
  br i1 %20, label %21, label %.Vec_PtrGrow.exit11_crit_edge.i

.Vec_PtrGrow.exit11_crit_edge.i:                  ; preds = %16
  %.phi.trans.insert.i = getelementptr inbounds nuw i8, ptr %2, i64 8
  %.pre.i = load ptr, ptr %.phi.trans.insert.i, align 8, !tbaa !9
  br label %Vec_PtrPush.exit

21:                                               ; preds = %16
  %22 = icmp slt i32 %18, 16
  br i1 %22, label %23, label %31

23:                                               ; preds = %21
  %24 = getelementptr inbounds nuw i8, ptr %2, i64 8
  %25 = load ptr, ptr %24, align 8, !tbaa !9
  %.not9.i.i = icmp eq ptr %25, null
  br i1 %.not9.i.i, label %28, label %26

26:                                               ; preds = %23
  %27 = tail call dereferenceable_or_null(128) ptr @realloc(ptr noundef nonnull %25, i64 noundef 128) #21
  br label %Vec_PtrGrow.exit.i

28:                                               ; preds = %23
  %29 = tail call noalias dereferenceable_or_null(128) ptr @malloc(i64 noundef 128) #20
  br label %Vec_PtrGrow.exit.i

Vec_PtrGrow.exit.i:                               ; preds = %28, %26
  %30 = phi ptr [ %27, %26 ], [ %29, %28 ]
  store ptr %30, ptr %24, align 8, !tbaa !9
  store i32 16, ptr %2, align 8, !tbaa !3
  br label %Vec_PtrPush.exit

31:                                               ; preds = %21
  %32 = shl nuw nsw i32 %18, 1
  %33 = getelementptr inbounds nuw i8, ptr %2, i64 8
  %34 = load ptr, ptr %33, align 8, !tbaa !9
  %.not9.i10.i = icmp eq ptr %34, null
  %35 = zext nneg i32 %32 to i64
  %36 = shl nuw nsw i64 %35, 3
  br i1 %.not9.i10.i, label %39, label %37

37:                                               ; preds = %31
  %38 = tail call ptr @realloc(ptr noundef nonnull %34, i64 noundef %36) #21
  br label %41

39:                                               ; preds = %31
  %40 = tail call noalias ptr @malloc(i64 noundef %36) #20
  br label %41

41:                                               ; preds = %39, %37
  %42 = phi ptr [ %38, %37 ], [ %40, %39 ]
  store ptr %42, ptr %33, align 8, !tbaa !9
  store i32 %32, ptr %2, align 8, !tbaa !3
  br label %Vec_PtrPush.exit

Vec_PtrPush.exit:                                 ; preds = %.Vec_PtrGrow.exit11_crit_edge.i, %Vec_PtrGrow.exit.i, %41
  %43 = phi ptr [ %.pre.i, %.Vec_PtrGrow.exit11_crit_edge.i ], [ %42, %41 ], [ %30, %Vec_PtrGrow.exit.i ]
  %44 = load i32, ptr %17, align 4, !tbaa !10
  %45 = add nsw i32 %44, 1
  store i32 %45, ptr %17, align 4, !tbaa !10
  %46 = sext i32 %44 to i64
  %47 = getelementptr inbounds ptr, ptr %43, i64 %46
  store ptr %1, ptr %47, align 8, !tbaa !11
  %.pre = load i64, ptr %4, align 8
  br label %48

48:                                               ; preds = %11, %Vec_PtrPush.exit, %8
  %49 = phi i64 [ %12, %11 ], [ %.pre, %Vec_PtrPush.exit ], [ %.val4.i, %8 ]
  %50 = and i64 %49, 4294967232
  %.not = icmp eq i64 %50, 0
  br i1 %.not, label %.critedge, label %.lr.ph

.lr.ph:                                           ; preds = %48
  %51 = getelementptr i8, ptr %0, i64 176
  %52 = getelementptr inbounds nuw i8, ptr %1, i64 36
  %53 = getelementptr i8, ptr %0, i64 32
  br label %54

54:                                               ; preds = %.lr.ph, %Aig_ManObj.exit
  %.032 = phi i32 [ -1, %.lr.ph ], [ %67, %Aig_ManObj.exit ]
  %.02031 = phi i32 [ 0, %.lr.ph ], [ %75, %Aig_ManObj.exit ]
  %.not23 = icmp eq i32 %.02031, 0
  br i1 %.not23, label %61, label %55

55:                                               ; preds = %54
  %56 = ashr i32 %.032, 1
  %57 = mul nsw i32 %56, 5
  %58 = and i32 %.032, 1
  %59 = add nuw nsw i32 %58, 3
  %60 = add i32 %59, %57
  br label %64

61:                                               ; preds = %54
  %62 = load i32, ptr %52, align 4, !tbaa !42
  %63 = mul nsw i32 %62, 5
  br label %64

64:                                               ; preds = %61, %55
  %.sink33 = phi i32 [ %63, %61 ], [ %60, %55 ]
  %.val25.sink = load ptr, ptr %51, align 8, !tbaa !62
  %65 = sext i32 %.sink33 to i64
  %66 = getelementptr inbounds i32, ptr %.val25.sink, i64 %65
  %67 = load i32, ptr %66, align 4, !tbaa !43
  %.val26 = load ptr, ptr %53, align 8, !tbaa !35
  %.not.i27 = icmp eq ptr %.val26, null
  br i1 %.not.i27, label %Aig_ManObj.exit, label %68

68:                                               ; preds = %64
  %69 = ashr i32 %67, 1
  %70 = getelementptr i8, ptr %.val26, i64 8
  %.val.i28 = load ptr, ptr %70, align 8, !tbaa !9
  %71 = sext i32 %69 to i64
  %72 = getelementptr inbounds ptr, ptr %.val.i28, i64 %71
  %73 = load ptr, ptr %72, align 8, !tbaa !11
  br label %Aig_ManObj.exit

Aig_ManObj.exit:                                  ; preds = %64, %68
  %74 = phi ptr [ %73, %68 ], [ null, %64 ]
  tail call void @Llb_ManFlowCollectAndMarkCone_rec(ptr noundef nonnull %0, ptr noundef %74, ptr noundef %2)
  %75 = add nuw nsw i32 %.02031, 1
  %76 = load i64, ptr %4, align 8
  %77 = trunc i64 %76 to i32
  %78 = lshr i32 %77, 6
  %79 = icmp samesign ult i32 %75, %78
  br i1 %79, label %54, label %.critedge, !llvm.loop !87

.critedge:                                        ; preds = %Aig_ManObj.exit, %48, %Saig_ObjIsLi.exit.thread, %Saig_ObjIsLi.exit
  ret void
}